; Function Attrs: mustprogress noreturn uwtable
define internal fastcc void @_ZL19throw_out_of_memoryv() unnamed_addr #13 personality ptr @__gxx_personality_v0 {
  store atomic i8 1, ptr @_ZL22g_memory_out_of_memory.0 seq_cst, align 1
  %1 = load i8, ptr @_ZL25g_exit_when_out_of_memory, align 1, !tbaa !6, !range !16, !noundef !17
  %2 = trunc nuw i8 %1 to i1
  br i1 %2, label %3, label %7

3:                                                ; preds = %0
  %4 = load ptr, ptr @_ZL19g_out_of_memory_msg, align 8, !tbaa !9
  %5 = tail call noundef nonnull align 8 dereferenceable(8) ptr @_ZStlsISt11char_traitsIcEERSt13basic_ostreamIcT_ES5_PKc(ptr noundef nonnull align 8 dereferenceable(8) @_ZSt4cerr, ptr noundef %4)
  %6 = tail call noundef nonnull align 8 dereferenceable(8) ptr @_ZStlsISt11char_traitsIcEERSt13basic_ostreamIcT_ES5_PKc(ptr noundef nonnull align 8 dereferenceable(8) %5, ptr noundef nonnull @.str.4)
  tail call void @exit(i32 noundef 101) #28
  unreachable

7:                                                ; preds = %0
  %8 = tail call ptr @__cxa_allocate_exception(i64 16) #25
  invoke void @_ZN19out_of_memory_errorC2Ev(ptr noundef nonnull align 8 dereferenceable(12) %8)
          to label %9 unwind label %10

9:                                                ; preds = %7
  tail call void @__cxa_throw(ptr nonnull %8, ptr nonnull @_ZTI19out_of_memory_error, ptr nonnull @_ZNSt9exceptionD2Ev) #26
  unreachable

10:                                               ; preds = %7
  %11 = landingpad { ptr, i32 }
          cleanup
  tail call void @__cxa_free_exception(ptr nonnull %8) #25
  resume { ptr, i32 } %11
}